target datalayout = "e-m:e-p270:32:32-p271:32:32-p272:64:64-i64:64-i128:128-f80:128-n8:16:32:64-S128"
target triple = "x86_64-pc-linux-gnu"

@.str.2 = private unnamed_addr constant [30 x i8] c"../openssl/test/rsa_mp_test.c\00", align 1
@.str.3 = private unnamed_addr constant [16 x i8] c"rsa = RSA_new()\00", align 1
@.str.4 = private unnamed_addr constant [15 x i8] c"ebn = BN_new()\00", align 1
@.str.5 = private unnamed_addr constant [24 x i8] c"BN_set_word(ebn, 65537)\00", align 1
@.str.6 = private unnamed_addr constant [55 x i8] c"RSA_generate_multi_prime_key(rsa, 1024, 2, NULL, NULL)\00", align 1
@.str.7 = private unnamed_addr constant [2 x i8] c"0\00", align 1
@.str.8 = private unnamed_addr constant [53 x i8] c"RSA_generate_multi_prime_key(rsa, 500, 2, ebn, NULL)\00", align 1
@.str.9 = private unnamed_addr constant [54 x i8] c"RSA_generate_multi_prime_key(rsa, 1024, 1, ebn, NULL)\00", align 1

; Function Attrs: nounwind uwtable
define internal i32 @test_rsa_mp_gen_bad_input() #0 {
  %1 = alloca i32, align 4
  %2 = alloca ptr, align 8
  %3 = alloca ptr, align 8
  call void @llvm.lifetime.start.p0(i64 4, ptr %1) #4
  store i32 0, ptr %1, align 4, !tbaa !4
  call void @llvm.lifetime.start.p0(i64 8, ptr %2) #4
  store ptr null, ptr %2, align 8, !tbaa !8
  call void @llvm.lifetime.start.p0(i64 8, ptr %3) #4
  store ptr null, ptr %3, align 8, !tbaa !11
  %4 = call ptr @RSA_new()
  store ptr %4, ptr %2, align 8, !tbaa !8
  %5 = call i32 @test_ptr(ptr noundef @.str.2, i32 noundef 298, ptr noundef @.str.3, ptr noundef %4)
  %6 = icmp ne i32 %5, 0
  br i1 %6, label %8, label %7

7:                                                ; preds = %0
  br label %42

8:                                                ; preds = %0
  %9 = call ptr @BN_new()
  store ptr %9, ptr %3, align 8, !tbaa !11
  %10 = call i32 @test_ptr(ptr noundef @.str.2, i32 noundef 301, ptr noundef @.str.4, ptr noundef %9)
  %11 = icmp ne i32 %10, 0
  br i1 %11, label %13, label %12

12:                                               ; preds = %8
  br label %42

13:                                               ; preds = %8
  %14 = load ptr, ptr %3, align 8, !tbaa !11
  %15 = call i32 @BN_set_word(ptr noundef %14, i64 noundef 65537)
  %16 = icmp ne i32 %15, 0
  %17 = zext i1 %16 to i32
  %18 = call i32 @test_true(ptr noundef @.str.2, i32 noundef 303, ptr noundef @.str.5, i32 noundef %17)
  %19 = icmp ne i32 %18, 0
  br i1 %19, label %21, label %20

20:                                               ; preds = %13
  br label %42

21:                                               ; preds = %13
  %22 = load ptr, ptr %2, align 8, !tbaa !8
  %23 = call i32 @RSA_generate_multi_prime_key(ptr noundef %22, i32 noundef 1024, i32 noundef 2, ptr noundef null, ptr noundef null)
  %24 = call i32 @test_int_eq(ptr noundef @.str.2, i32 noundef 307, ptr noundef @.str.6, ptr noundef @.str.7, i32 noundef %23, i32 noundef 0)
  %25 = icmp ne i32 %24, 0
  br i1 %25, label %27, label %26

26:                                               ; preds = %21
  br label %42

27:                                               ; preds = %21
  %28 = load ptr, ptr %2, align 8, !tbaa !8
  %29 = load ptr, ptr %3, align 8, !tbaa !11
  %30 = call i32 @RSA_generate_multi_prime_key(ptr noundef %28, i32 noundef 500, i32 noundef 2, ptr noundef %29, ptr noundef null)
  %31 = call i32 @test_int_eq(ptr noundef @.str.2, i32 noundef 311, ptr noundef @.str.8, ptr noundef @.str.7, i32 noundef %30, i32 noundef 0)
  %32 = icmp ne i32 %31, 0
  br i1 %32, label %34, label %33

33:                                               ; preds = %27
  br label %42

34:                                               ; preds = %27
  %35 = load ptr, ptr %2, align 8, !tbaa !8
  %36 = load ptr, ptr %3, align 8, !tbaa !11
  %37 = call i32 @RSA_generate_multi_prime_key(ptr noundef %35, i32 noundef 1024, i32 noundef 1, ptr noundef %36, ptr noundef null)
  %38 = call i32 @test_int_eq(ptr noundef @.str.2, i32 noundef 315, ptr noundef @.str.9, ptr noundef @.str.7, i32 noundef %37, i32 noundef 0)
  %39 = icmp ne i32 %38, 0
  br i1 %39, label %41, label %40

40:                                               ; preds = %34
  br label %42

41:                                               ; preds = %34
  store i32 1, ptr %1, align 4, !tbaa !4
  br label %42

42:                                               ; preds = %41, %40, %33, %26, %20, %12, %7
  %43 = load ptr, ptr %3, align 8, !tbaa !11
  call void @BN_free(ptr noundef %43)
  %44 = load ptr, ptr %2, align 8, !tbaa !8
  call void @RSA_free(ptr noundef %44)
  %45 = load i32, ptr %1, align 4, !tbaa !4
  call void @llvm.lifetime.end.p0(i64 8, ptr %3) #4
  call void @llvm.lifetime.end.p0(i64 8, ptr %2) #4
  call void @llvm.lifetime.end.p0(i64 4, ptr %1) #4
  ret i32 %45
}