; Function Attrs: nounwind uwtable
define internal range(i32 0, 2) i32 @test_rsa_mp_gen_bad_input() #0 {
  %1 = tail call ptr @RSA_new() #3
  %2 = tail call i32 @test_ptr(ptr noundef nonnull @.str.2, i32 noundef 298, ptr noundef nonnull @.str.3, ptr noundef %1) #3
  %.not = icmp eq i32 %2, 0
  br i1 %.not, label %20, label %3

3:                                                ; preds = %0
  %4 = tail call ptr @BN_new() #3
  %5 = tail call i32 @test_ptr(ptr noundef nonnull @.str.2, i32 noundef 301, ptr noundef nonnull @.str.4, ptr noundef %4) #3
  %.not9 = icmp eq i32 %5, 0
  br i1 %.not9, label %20, label %6

6:                                                ; preds = %3
  %7 = tail call i32 @BN_set_word(ptr noundef %4, i64 noundef 65537) #3
  %8 = icmp ne i32 %7, 0
  %9 = zext i1 %8 to i32
  %10 = tail call i32 @test_true(ptr noundef nonnull @.str.2, i32 noundef 303, ptr noundef nonnull @.str.5, i32 noundef %9) #3
  %.not10 = icmp eq i32 %10, 0
  br i1 %.not10, label %20, label %11

11:                                               ; preds = %6
  %12 = tail call i32 @RSA_generate_multi_prime_key(ptr noundef %1, i32 noundef 1024, i32 noundef 2, ptr noundef null, ptr noundef null) #3
  %13 = tail call i32 @test_int_eq(ptr noundef nonnull @.str.2, i32 noundef 307, ptr noundef nonnull @.str.6, ptr noundef nonnull @.str.7, i32 noundef %12, i32 noundef 0) #3
  %.not11 = icmp eq i32 %13, 0
  br i1 %.not11, label %20, label %14

14:                                               ; preds = %11
  %15 = tail call i32 @RSA_generate_multi_prime_key(ptr noundef %1, i32 noundef 500, i32 noundef 2, ptr noundef %4, ptr noundef null) #3
  %16 = tail call i32 @test_int_eq(ptr noundef nonnull @.str.2, i32 noundef 311, ptr noundef nonnull @.str.8, ptr noundef nonnull @.str.7, i32 noundef %15, i32 noundef 0) #3
  %.not12 = icmp eq i32 %16, 0
  br i1 %.not12, label %20, label %17

17:                                               ; preds = %14
  %18 = tail call i32 @RSA_generate_multi_prime_key(ptr noundef %1, i32 noundef 1024, i32 noundef 1, ptr noundef %4, ptr noundef null) #3
  %19 = tail call i32 @test_int_eq(ptr noundef nonnull @.str.2, i32 noundef 315, ptr noundef nonnull @.str.9, ptr noundef nonnull @.str.7, i32 noundef %18, i32 noundef 0) #3
  %.not13 = icmp ne i32 %19, 0
  %spec.select = zext i1 %.not13 to i32
  br label %20

20:                                               ; preds = %17, %14, %11, %6, %3, %0
  %.08 = phi i32 [ 0, %14 ], [ 0, %11 ], [ 0, %6 ], [ 0, %3 ], [ 0, %0 ], [ %spec.select, %17 ]
  %.0 = phi ptr [ %4, %14 ], [ %4, %11 ], [ %4, %6 ], [ %4, %3 ], [ null, %0 ], [ %4, %17 ]
  tail call void @BN_free(ptr noundef %.0) #3
  tail call void @RSA_free(ptr noundef %1) #3
  ret i32 %.08
}